; Function Attrs: mustprogress uwtable
define internal noundef zeroext i1 @_ZL34ggml_backend_cpu_buffer_cpy_tensorP19ggml_backend_bufferPK11ggml_tensorPS1_(ptr readnone captures(none) %0, ptr noundef %1, ptr noundef readonly captures(none) %2) #0 {
  %4 = getelementptr inbounds nuw i8, ptr %1, i64 8
  %5 = load ptr, ptr %4, align 8, !tbaa !47
  %6 = getelementptr inbounds nuw i8, ptr %5, i64 72
  %7 = load ptr, ptr %6, align 8, !tbaa !10
  %8 = getelementptr inbounds nuw i8, ptr %7, i64 40
  %9 = load ptr, ptr %8, align 8, !tbaa !25
  %.not.i.i = icmp eq ptr %9, null
  br i1 %.not.i.i, label %ggml_backend_buffer_is_host.exit.thread, label %ggml_backend_buffer_is_host.exit

ggml_backend_buffer_is_host.exit:                 ; preds = %3
  %10 = tail call noundef zeroext i1 %9(ptr noundef nonnull %7)
  br i1 %10, label %11, label %ggml_backend_buffer_is_host.exit.thread

11:                                               ; preds = %ggml_backend_buffer_is_host.exit
  %12 = getelementptr inbounds nuw i8, ptr %2, i64 248
  %13 = load ptr, ptr %12, align 8, !tbaa !60
  %14 = getelementptr inbounds nuw i8, ptr %1, i64 248
  %15 = load ptr, ptr %14, align 8, !tbaa !60
  %16 = tail call i64 @ggml_nbytes(ptr noundef nonnull %1)
  tail call void @llvm.memcpy.p0.p0.i64(ptr align 1 %13, ptr align 1 %15, i64 %16, i1 false)
  br label %ggml_backend_buffer_is_host.exit.thread

ggml_backend_buffer_is_host.exit.thread:          ; preds = %3, %ggml_backend_buffer_is_host.exit, %11
  %.0.i.i6 = phi i1 [ false, %ggml_backend_buffer_is_host.exit ], [ true, %11 ], [ false, %3 ]
  ret i1 %.0.i.i6
}